target datalayout = "e-m:e-p270:32:32-p271:32:32-p272:64:64-i64:64-i128:128-f80:128-n8:16:32:64-S128"
target triple = "x86_64-pc-linux-gnu"

%struct.cert_store_t = type { %union.pthread_mutex_t, i8, %struct.cert_list_t, %struct.cert_list_t }
%union.pthread_mutex_t = type { %struct.__pthread_mutex_s }
%struct.__pthread_mutex_s = type { i32, i32, i32, i32, i32, i16, i16, %struct.__pthread_internal_list }
%struct.__pthread_internal_list = type { ptr, ptr }
%struct.cert_list_t = type { ptr, i64 }

@_cert_store = internal global %struct.cert_store_t zeroinitializer, align 8
@.str = private unnamed_addr constant [19 x i8] c"Mutex lock failed\0A\00", align 1
@.str.1 = private unnamed_addr constant [21 x i8] c"Mutex unlock failed\0A\00", align 1
@.str.4 = private unnamed_addr constant [32 x i8] c"One or more arguments are NULL\0A\00", align 1
@.str.5 = private unnamed_addr constant [41 x i8] c"Could not allocate memory for PEM certs\0A\00", align 1

; Function Attrs: nounwind uwtable
define i32 @cert_store_export_pem(ptr noundef %0, ptr noundef %1, ptr noundef %2) #0 {
  %4 = alloca ptr, align 8
  %5 = alloca ptr, align 8
  %6 = alloca ptr, align 8
  %7 = alloca i32, align 4
  %8 = alloca i32, align 4
  %9 = alloca i32, align 4
  %10 = alloca i8, align 1
  %11 = alloca i32, align 4
  %12 = alloca i64, align 8
  %13 = alloca i8, align 1
  %14 = alloca i32, align 4
  %15 = alloca i32, align 4
  store ptr %0, ptr %4, align 8
  store ptr %1, ptr %5, align 8
  store ptr %2, ptr %6, align 8
  store i32 358400, ptr %7, align 4
  store i32 8, ptr %9, align 4
  store i8 0, ptr %10, align 1
  store i64 358400, ptr %12, align 8
  store i8 1, ptr %13, align 1
  %16 = load ptr, ptr %4, align 8
  %17 = icmp eq ptr %16, null
  br i1 %17, label %21, label %18

18:                                               ; preds = %3
  %19 = load ptr, ptr %5, align 8
  %20 = icmp eq ptr %19, null
  br i1 %20, label %21, label %22

21:                                               ; preds = %18, %3
  call void (i32, ptr, ...) @mprintf(i32 noundef 5, ptr noundef @.str.4)
  br label %138

22:                                               ; preds = %18
  %23 = call noalias ptr @calloc(i64 noundef 1, i64 noundef 358401) #13
  %24 = load ptr, ptr %4, align 8
  store ptr %23, ptr %24, align 8
  %25 = load ptr, ptr %4, align 8
  %26 = load ptr, ptr %25, align 8
  %27 = icmp eq ptr %26, null
  br i1 %27, label %28, label %29

28:                                               ; preds = %22
  call void (i32, ptr, ...) @mprintf(i32 noundef 5, ptr noundef @.str.5)
  br label %138

29:                                               ; preds = %22
  %30 = load ptr, ptr %5, align 8
  store i32 0, ptr %30, align 4
  %31 = call i32 @pthread_mutex_lock(ptr noundef @_cert_store) #10
  store i32 %31, ptr %11, align 4
  %32 = load i32, ptr %11, align 4
  %33 = icmp ne i32 %32, 0
  br i1 %33, label %34, label %37

34:                                               ; preds = %29
  %35 = load i32, ptr %11, align 4
  %36 = call ptr @__errno_location() #11
  store i32 %35, ptr %36, align 4
  call void (i32, ptr, ...) @mprintf(i32 noundef 5, ptr noundef @.str)
  br label %37

37:                                               ; preds = %34, %29
  store i8 1, ptr %10, align 1
  %38 = load i8, ptr getelementptr inbounds (%struct.cert_store_t, ptr @_cert_store, i32 0, i32 1), align 8
  %39 = trunc i8 %38 to i1
  br i1 %39, label %41, label %40

40:                                               ; preds = %37
  br label %138

41:                                               ; preds = %37
  store i32 0, ptr %8, align 4
  br label %42

42:                                               ; preds = %77, %41
  %43 = load i32, ptr %8, align 4
  %44 = zext i32 %43 to i64
  %45 = load i64, ptr getelementptr inbounds (%struct.cert_store_t, ptr @_cert_store, i32 0, i32 2, i32 1), align 8
  %46 = icmp ult i64 %44, %45
  br i1 %46, label %47, label %80

47:                                               ; preds = %42
  %48 = load ptr, ptr getelementptr inbounds (%struct.cert_store_t, ptr @_cert_store, i32 0, i32 2), align 8
  %49 = load i32, ptr %8, align 4
  %50 = zext i32 %49 to i64
  %51 = getelementptr inbounds ptr, ptr %48, i64 %50
  %52 = load ptr, ptr %51, align 8
  %53 = load ptr, ptr %4, align 8
  %54 = load ptr, ptr %5, align 8
  %55 = call i32 @_x509_to_pem_append(ptr noundef %52, ptr noundef %53, ptr noundef %54, ptr noundef %12)
  %56 = icmp ne i32 %55, 0
  br i1 %56, label %57, label %58

57:                                               ; preds = %47
  br label %138

58:                                               ; preds = %47
  %59 = load ptr, ptr %6, align 8
  %60 = icmp ne ptr %59, null
  br i1 %60, label %61, label %76

61:                                               ; preds = %58
  store i32 0, ptr %14, align 4
  %62 = load ptr, ptr getelementptr inbounds (%struct.cert_store_t, ptr @_cert_store, i32 0, i32 2), align 8
  %63 = load i32, ptr %8, align 4
  %64 = zext i32 %63 to i64
  %65 = getelementptr inbounds ptr, ptr %62, i64 %64
  %66 = load ptr, ptr %65, align 8
  %67 = load ptr, ptr %6, align 8
  %68 = call i32 @x509_cert_name_cmp(ptr noundef %66, ptr noundef %67, ptr noundef %14)
  %69 = icmp eq i32 0, %68
  br i1 %69, label %70, label %75

70:                                               ; preds = %61
  %71 = load i32, ptr %14, align 4
  %72 = icmp eq i32 0, %71
  br i1 %72, label %73, label %74

73:                                               ; preds = %70
  store i8 0, ptr %13, align 1
  br label %74

74:                                               ; preds = %73, %70
  br label %75

75:                                               ; preds = %74, %61
  br label %76

76:                                               ; preds = %75, %58
  br label %77

77:                                               ; preds = %76
  %78 = load i32, ptr %8, align 4
  %79 = add i32 %78, 1
  store i32 %79, ptr %8, align 4
  br label %42

80:                                               ; preds = %42
  store i32 0, ptr %8, align 4
  br label %81

81:                                               ; preds = %116, %80
  %82 = load i32, ptr %8, align 4
  %83 = zext i32 %82 to i64
  %84 = load i64, ptr getelementptr inbounds (%struct.cert_store_t, ptr @_cert_store, i32 0, i32 3, i32 1), align 8
  %85 = icmp ult i64 %83, %84
  br i1 %85, label %86, label %119

86:                                               ; preds = %81
  %87 = load ptr, ptr getelementptr inbounds (%struct.cert_store_t, ptr @_cert_store, i32 0, i32 3), align 8
  %88 = load i32, ptr %8, align 4
  %89 = zext i32 %88 to i64
  %90 = getelementptr inbounds ptr, ptr %87, i64 %89
  %91 = load ptr, ptr %90, align 8
  %92 = load ptr, ptr %4, align 8
  %93 = load ptr, ptr %5, align 8
  %94 = call i32 @_x509_to_pem_append(ptr noundef %91, ptr noundef %92, ptr noundef %93, ptr noundef %12)
  %95 = icmp ne i32 %94, 0
  br i1 %95, label %96, label %97

96:                                               ; preds = %86
  br label %138

97:                                               ; preds = %86
  %98 = load ptr, ptr %6, align 8
  %99 = icmp ne ptr %98, null
  br i1 %99, label %100, label %115

100:                                              ; preds = %97
  store i32 0, ptr %15, align 4
  %101 = load ptr, ptr getelementptr inbounds (%struct.cert_store_t, ptr @_cert_store, i32 0, i32 3), align 8
  %102 = load i32, ptr %8, align 4
  %103 = zext i32 %102 to i64
  %104 = getelementptr inbounds ptr, ptr %101, i64 %103
  %105 = load ptr, ptr %104, align 8
  %106 = load ptr, ptr %6, align 8
  %107 = call i32 @x509_cert_name_cmp(ptr noundef %105, ptr noundef %106, ptr noundef %15)
  %108 = icmp eq i32 0, %107
  br i1 %108, label %109, label %114

109:                                              ; preds = %100
  %110 = load i32, ptr %15, align 4
  %111 = icmp eq i32 0, %110
  br i1 %111, label %112, label %113

112:                                              ; preds = %109
  store i8 0, ptr %13, align 1
  br label %113

113:                                              ; preds = %112, %109
  br label %114

114:                                              ; preds = %113, %100
  br label %115

115:                                              ; preds = %114, %97
  br label %116

116:                                              ; preds = %115
  %117 = load i32, ptr %8, align 4
  %118 = add i32 %117, 1
  store i32 %118, ptr %8, align 4
  br label %81

119:                                              ; preds = %81
  %120 = load ptr, ptr %6, align 8
  %121 = icmp ne ptr %120, null
  br i1 %121, label %122, label %137

122:                                              ; preds = %119
  %123 = load i8, ptr %13, align 1
  %124 = trunc i8 %123 to i1
  br i1 %124, label %125, label %137

125:                                              ; preds = %122
  %126 = load ptr, ptr %4, align 8
  %127 = load ptr, ptr %126, align 8
  %128 = icmp ne ptr %127, null
  br i1 %128, label %129, label %137

129:                                              ; preds = %125
  %130 = load ptr, ptr %6, align 8
  %131 = load ptr, ptr %4, align 8
  %132 = load ptr, ptr %5, align 8
  %133 = call i32 @_x509_to_pem_append(ptr noundef %130, ptr noundef %131, ptr noundef %132, ptr noundef %12)
  %134 = icmp ne i32 %133, 0
  br i1 %134, label %135, label %136

135:                                              ; preds = %129
  br label %138

136:                                              ; preds = %129
  br label %137

137:                                              ; preds = %136, %125, %122, %119
  store i32 0, ptr %9, align 4
  br label %138

138:                                              ; preds = %137, %135, %96, %57, %40, %28, %21
  %139 = load i8, ptr %10, align 1
  %140 = trunc i8 %139 to i1
  br i1 %140, label %141, label %149

141:                                              ; preds = %138
  %142 = call i32 @pthread_mutex_unlock(ptr noundef @_cert_store) #10
  store i32 %142, ptr %11, align 4
  %143 = load i32, ptr %11, align 4
  %144 = icmp ne i32 %143, 0
  br i1 %144, label %145, label %148

145:                                              ; preds = %141
  %146 = load i32, ptr %11, align 4
  %147 = call ptr @__errno_location() #11
  store i32 %146, ptr %147, align 4
  call void (i32, ptr, ...) @mprintf(i32 noundef 5, ptr noundef @.str.1)
  br label %148

148:                                              ; preds = %145, %141
  store i8 0, ptr %10, align 1
  br label %149

149:                                              ; preds = %148, %138
  %150 = load i32, ptr %9, align 4
  %151 = icmp ne i32 %150, 0
  br i1 %151, label %152, label %163

152:                                              ; preds = %149
  %153 = load ptr, ptr %4, align 8
  %154 = icmp ne ptr %153, null
  br i1 %154, label %155, label %163

155:                                              ; preds = %152
  %156 = load ptr, ptr %4, align 8
  %157 = load ptr, ptr %156, align 8
  %158 = icmp ne ptr %157, null
  br i1 %158, label %159, label %163

159:                                              ; preds = %155
  %160 = load ptr, ptr %4, align 8
  %161 = load ptr, ptr %160, align 8
  call void @free(ptr noundef %161) #10
  %162 = load ptr, ptr %4, align 8
  store ptr null, ptr %162, align 8
  br label %163

163:                                              ; preds = %159, %155, %152, %149
  %164 = load i32, ptr %9, align 4
  ret i32 %164
}