; Function Attrs: nounwind uwtable
define noundef i32 @cert_store_export_pem(ptr noundef %0, ptr noundef %1, ptr noundef %2) local_unnamed_addr #1 {
  %4 = alloca i64, align 8
  %5 = alloca i32, align 4
  %6 = alloca i32, align 4
  store i64 358400, ptr %4, align 8
  %7 = icmp eq ptr %0, null
  %8 = icmp eq ptr %1, null
  %or.cond = or i1 %7, %8
  br i1 %or.cond, label %9, label %10

9:                                                ; preds = %3
  tail call void (i32, ptr, ...) @mprintf(i32 noundef 5, ptr noundef nonnull @.str.4) #15
  br label %85

10:                                               ; preds = %3
  %11 = tail call noalias dereferenceable_or_null(358401) ptr @calloc(i64 noundef 1, i64 noundef 358401) #18
  store ptr %11, ptr %0, align 8
  %12 = icmp eq ptr %11, null
  br i1 %12, label %13, label %14

13:                                               ; preds = %10
  tail call void (i32, ptr, ...) @mprintf(i32 noundef 5, ptr noundef nonnull @.str.5) #15
  br label %85

14:                                               ; preds = %10
  store i32 0, ptr %1, align 4
  %15 = tail call i32 @pthread_mutex_lock(ptr noundef nonnull @_cert_store) #15
  %.not = icmp eq i32 %15, 0
  br i1 %.not, label %18, label %16

16:                                               ; preds = %14
  %17 = tail call ptr @__errno_location() #16
  store i32 %15, ptr %17, align 4
  tail call void (i32, ptr, ...) @mprintf(i32 noundef 5, ptr noundef nonnull @.str) #15
  br label %18

18:                                               ; preds = %16, %14
  %19 = load i8, ptr getelementptr inbounds (%struct.cert_store_t, ptr @_cert_store, i64 0, i32 1), align 8
  %20 = trunc i8 %19 to i1
  br i1 %20, label %.preheader73, label %.loopexit

.preheader73:                                     ; preds = %18
  %21 = load i64, ptr getelementptr inbounds (%struct.cert_store_t, ptr @_cert_store, i64 0, i32 2, i32 1), align 8
  %.not84 = icmp eq i64 %21, 0
  br i1 %.not84, label %.preheader, label %.lr.ph

.lr.ph:                                           ; preds = %.preheader73
  %.not65 = icmp eq ptr %2, null
  br i1 %.not65, label %.lr.ph.split.us, label %.lr.ph.split

.lr.ph.split.us:                                  ; preds = %.lr.ph, %27
  %22 = phi i64 [ %29, %27 ], [ 0, %.lr.ph ]
  %.04677.us = phi i32 [ %28, %27 ], [ 0, %.lr.ph ]
  %23 = load ptr, ptr getelementptr inbounds (%struct.cert_store_t, ptr @_cert_store, i64 0, i32 2), align 8
  %24 = getelementptr inbounds ptr, ptr %23, i64 %22
  %25 = load ptr, ptr %24, align 8
  %26 = call fastcc i32 @_x509_to_pem_append(ptr noundef %25, ptr noundef nonnull %0, ptr noundef nonnull %1, ptr noundef nonnull %4), !range !4
  %.not64.us = icmp eq i32 %26, 0
  br i1 %.not64.us, label %27, label %.loopexit

27:                                               ; preds = %.lr.ph.split.us
  %28 = add i32 %.04677.us, 1
  %29 = zext i32 %28 to i64
  %30 = load i64, ptr getelementptr inbounds (%struct.cert_store_t, ptr @_cert_store, i64 0, i32 2, i32 1), align 8
  %31 = icmp ugt i64 %30, %29
  br i1 %31, label %.lr.ph.split.us, label %.preheader

.preheader:                                       ; preds = %48, %27, %.preheader73
  %.0.lcssa = phi i1 [ true, %.preheader73 ], [ true, %27 ], [ %spec.select, %48 ]
  %32 = load i64, ptr getelementptr inbounds (%struct.cert_store_t, ptr @_cert_store, i64 0, i32 3, i32 1), align 8
  %.not87 = icmp eq i64 %32, 0
  br i1 %.not87, label %._crit_edge, label %.lr.ph81

.lr.ph81:                                         ; preds = %.preheader
  %.not63 = icmp eq ptr %2, null
  br i1 %.not63, label %.lr.ph81.split.us, label %.lr.ph81.split

.lr.ph81.split.us:                                ; preds = %.lr.ph81, %38
  %33 = phi i64 [ %40, %38 ], [ 0, %.lr.ph81 ]
  %.14779.us = phi i32 [ %39, %38 ], [ 0, %.lr.ph81 ]
  %34 = load ptr, ptr getelementptr inbounds (%struct.cert_store_t, ptr @_cert_store, i64 0, i32 3), align 8
  %35 = getelementptr inbounds ptr, ptr %34, i64 %33
  %36 = load ptr, ptr %35, align 8
  %37 = call fastcc i32 @_x509_to_pem_append(ptr noundef %36, ptr noundef nonnull %0, ptr noundef nonnull %1, ptr noundef nonnull %4), !range !4
  %.not62.us = icmp eq i32 %37, 0
  br i1 %.not62.us, label %38, label %.loopexit

38:                                               ; preds = %.lr.ph81.split.us
  %39 = add i32 %.14779.us, 1
  %40 = zext i32 %39 to i64
  %41 = load i64, ptr getelementptr inbounds (%struct.cert_store_t, ptr @_cert_store, i64 0, i32 3, i32 1), align 8
  %42 = icmp ugt i64 %41, %40
  br i1 %42, label %.lr.ph81.split.us, label %._crit_edge

.lr.ph.split:                                     ; preds = %.lr.ph, %48
  %43 = phi i64 [ %57, %48 ], [ 0, %.lr.ph ]
  %.078 = phi i1 [ %spec.select, %48 ], [ true, %.lr.ph ]
  %.04677 = phi i32 [ %56, %48 ], [ 0, %.lr.ph ]
  %44 = load ptr, ptr getelementptr inbounds (%struct.cert_store_t, ptr @_cert_store, i64 0, i32 2), align 8
  %45 = getelementptr inbounds ptr, ptr %44, i64 %43
  %46 = load ptr, ptr %45, align 8
  %47 = call fastcc i32 @_x509_to_pem_append(ptr noundef %46, ptr noundef nonnull %0, ptr noundef nonnull %1, ptr noundef nonnull %4), !range !4
  %.not64 = icmp eq i32 %47, 0
  br i1 %.not64, label %48, label %.loopexit

48:                                               ; preds = %.lr.ph.split
  store i32 0, ptr %5, align 4
  %49 = load ptr, ptr getelementptr inbounds (%struct.cert_store_t, ptr @_cert_store, i64 0, i32 2), align 8
  %50 = getelementptr inbounds ptr, ptr %49, i64 %43
  %51 = load ptr, ptr %50, align 8
  %52 = call fastcc i32 @x509_cert_name_cmp(ptr noundef %51, ptr noundef nonnull %2, ptr noundef nonnull %5), !range !5
  %53 = icmp ne i32 %52, 0
  %54 = load i32, ptr %5, align 4
  %55 = icmp ne i32 %54, 0
  %or.cond5.not = select i1 %53, i1 true, i1 %55
  %spec.select = select i1 %or.cond5.not, i1 %.078, i1 false
  %56 = add i32 %.04677, 1
  %57 = zext i32 %56 to i64
  %58 = load i64, ptr getelementptr inbounds (%struct.cert_store_t, ptr @_cert_store, i64 0, i32 2, i32 1), align 8
  %59 = icmp ugt i64 %58, %57
  br i1 %59, label %.lr.ph.split, label %.preheader

.lr.ph81.split:                                   ; preds = %.lr.ph81, %65
  %60 = phi i64 [ %74, %65 ], [ 0, %.lr.ph81 ]
  %.280 = phi i1 [ %spec.select68, %65 ], [ %.0.lcssa, %.lr.ph81 ]
  %.14779 = phi i32 [ %73, %65 ], [ 0, %.lr.ph81 ]
  %61 = load ptr, ptr getelementptr inbounds (%struct.cert_store_t, ptr @_cert_store, i64 0, i32 3), align 8
  %62 = getelementptr inbounds ptr, ptr %61, i64 %60
  %63 = load ptr, ptr %62, align 8
  %64 = call fastcc i32 @_x509_to_pem_append(ptr noundef %63, ptr noundef nonnull %0, ptr noundef nonnull %1, ptr noundef nonnull %4), !range !4
  %.not62 = icmp eq i32 %64, 0
  br i1 %.not62, label %65, label %.loopexit

65:                                               ; preds = %.lr.ph81.split
  store i32 0, ptr %6, align 4
  %66 = load ptr, ptr getelementptr inbounds (%struct.cert_store_t, ptr @_cert_store, i64 0, i32 3), align 8
  %67 = getelementptr inbounds ptr, ptr %66, i64 %60
  %68 = load ptr, ptr %67, align 8
  %69 = call fastcc i32 @x509_cert_name_cmp(ptr noundef %68, ptr noundef nonnull %2, ptr noundef nonnull %6), !range !5
  %70 = icmp ne i32 %69, 0
  %71 = load i32, ptr %6, align 4
  %72 = icmp ne i32 %71, 0
  %or.cond7.not = select i1 %70, i1 true, i1 %72
  %spec.select68 = select i1 %or.cond7.not, i1 %.280, i1 false
  %73 = add i32 %.14779, 1
  %74 = zext i32 %73 to i64
  %75 = load i64, ptr getelementptr inbounds (%struct.cert_store_t, ptr @_cert_store, i64 0, i32 3, i32 1), align 8
  %76 = icmp ugt i64 %75, %74
  br i1 %76, label %.lr.ph81.split, label %._crit_edge

._crit_edge:                                      ; preds = %65, %38, %.preheader
  %.2.lcssa = phi i1 [ %.0.lcssa, %.preheader ], [ %.0.lcssa, %38 ], [ %spec.select68, %65 ]
  %.not59 = icmp ne ptr %2, null
  %brmerge.not = select i1 %.not59, i1 %.2.lcssa, i1 false
  br i1 %brmerge.not, label %77, label %81

77:                                               ; preds = %._crit_edge
  %78 = load ptr, ptr %0, align 8
  %.not60 = icmp eq ptr %78, null
  br i1 %.not60, label %81, label %79

79:                                               ; preds = %77
  %80 = call fastcc i32 @_x509_to_pem_append(ptr noundef nonnull %2, ptr noundef nonnull %0, ptr noundef nonnull %1, ptr noundef nonnull %4), !range !4
  %.not61 = icmp eq i32 %80, 0
  br i1 %.not61, label %81, label %.loopexit

81:                                               ; preds = %._crit_edge, %79, %77
  br label %.loopexit

.loopexit:                                        ; preds = %.lr.ph.split, %.lr.ph.split.us, %.lr.ph81.split, %.lr.ph81.split.us, %79, %81, %18
  %.ph = phi i1 [ true, %18 ], [ false, %81 ], [ true, %79 ], [ true, %.lr.ph81.split.us ], [ true, %.lr.ph81.split ], [ true, %.lr.ph.split.us ], [ true, %.lr.ph.split ]
  %.045.ph = phi i32 [ 8, %18 ], [ 0, %81 ], [ 8, %79 ], [ 8, %.lr.ph81.split.us ], [ 8, %.lr.ph81.split ], [ 8, %.lr.ph.split.us ], [ 8, %.lr.ph.split ]
  %82 = call i32 @pthread_mutex_unlock(ptr noundef nonnull @_cert_store) #15
  %.not66 = icmp eq i32 %82, 0
  br i1 %.not66, label %85, label %83

83:                                               ; preds = %.loopexit
  %84 = tail call ptr @__errno_location() #16
  store i32 %82, ptr %84, align 4
  call void (i32, ptr, ...) @mprintf(i32 noundef 5, ptr noundef nonnull @.str.1) #15
  br label %85

85:                                               ; preds = %9, %13, %.loopexit, %83
  %.04571 = phi i32 [ %.045.ph, %.loopexit ], [ %.045.ph, %83 ], [ 8, %9 ], [ 8, %13 ]
  %86 = phi i1 [ %.ph, %.loopexit ], [ %.ph, %83 ], [ true, %9 ], [ true, %13 ]
  %87 = icmp ne ptr %0, null
  %or.cond3 = and i1 %87, %86
  br i1 %or.cond3, label %88, label %91

88:                                               ; preds = %85
  %89 = load ptr, ptr %0, align 8
  %.not67 = icmp eq ptr %89, null
  br i1 %.not67, label %91, label %90

90:                                               ; preds = %88
  call void @free(ptr noundef nonnull %89) #15
  store ptr null, ptr %0, align 8
  br label %91

91:                                               ; preds = %90, %88, %85
  ret i32 %.04571
}